target datalayout = "e-m:e-p270:32:32-p271:32:32-p272:64:64-i64:64-i128:128-f80:128-n8:16:32:64-S128"
target triple = "x86_64-unknown-linux-gnu"

%"class.icu_75::UnicodeString" = type { %"class.icu_75::Replaceable", %"union.icu_75::UnicodeString::StackBufferOrFields" }
%"class.icu_75::Replaceable" = type { %"class.icu_75::UObject" }
%"class.icu_75::UObject" = type { ptr }
%"union.icu_75::UnicodeString::StackBufferOrFields" = type { %struct.anon.0, [32 x i8] }
%struct.anon.0 = type { i16, i32, i32, ptr }
%"class.icu_75::UnicodeSet" = type <{ %"class.icu_75::UnicodeFilter", ptr, i32, i32, i8, [7 x i8], ptr, ptr, i32, [4 x i8], ptr, i32, [4 x i8], ptr, ptr, [25 x i32], [4 x i8] }>
%"class.icu_75::UnicodeFilter" = type { %"class.icu_75::UnicodeFunctor", %"class.icu_75::UnicodeMatcher" }
%"class.icu_75::UnicodeFunctor" = type { %"class.icu_75::UObject" }
%"class.icu_75::UnicodeMatcher" = type { ptr }
%"class.icu_75::CheckResult" = type <{ %"class.icu_75::UObject", %"class.icu_75::IcuCApiHelper.1", i32, %"class.icu_75::UnicodeSet", i32, [4 x i8] }>
%"class.icu_75::IcuCApiHelper.1" = type { i32 }
%"class.icu_75::StringPiece" = type <{ ptr, i32, [4 x i8] }>

; Function Attrs: mustprogress uwtable
define i32 @uspoof_check2UnicodeString_75(ptr noundef %sc, ptr noundef nonnull align 8 dereferenceable(64) %id, ptr noundef %checkResult, ptr noundef %status) #0 personality ptr @__gxx_personality_v0 {
entry:
  %retval = alloca i32, align 4
  %sc.addr = alloca ptr, align 8
  %id.addr = alloca ptr, align 8
  %checkResult.addr = alloca ptr, align 8
  %status.addr = alloca ptr, align 8
  %This = alloca ptr, align 8
  %ThisCheckResult = alloca ptr, align 8
  %stackCheckResult = alloca %"class.icu_75::CheckResult", align 8
  %exn.slot = alloca ptr, align 8
  %ehselector.slot = alloca i32, align 4
  store ptr %sc, ptr %sc.addr, align 8
  store ptr %id, ptr %id.addr, align 8
  store ptr %checkResult, ptr %checkResult.addr, align 8
  store ptr %status, ptr %status.addr, align 8
  %0 = load ptr, ptr %sc.addr, align 8
  %1 = load ptr, ptr %status.addr, align 8
  %call = call noundef ptr @_ZN6icu_759SpoofImpl12validateThisEPK13USpoofCheckerR10UErrorCode(ptr noundef %0, ptr noundef nonnull align 4 dereferenceable(4) %1)
  store ptr %call, ptr %This, align 8
  %2 = load ptr, ptr %This, align 8
  %cmp = icmp eq ptr %2, null
  br i1 %cmp, label %if.then, label %if.end

if.then:                                          ; preds = %entry
  store i32 0, ptr %retval, align 4
  br label %return

if.end:                                           ; preds = %entry
  %3 = load ptr, ptr %checkResult.addr, align 8
  %cmp1 = icmp ne ptr %3, null
  br i1 %cmp1, label %if.then2, label %if.else

if.then2:                                         ; preds = %if.end
  %4 = load ptr, ptr %checkResult.addr, align 8
  %5 = load ptr, ptr %status.addr, align 8
  %call3 = call noundef ptr @_ZN6icu_7511CheckResult12validateThisEP17USpoofCheckResultR10UErrorCode(ptr noundef %4, ptr noundef nonnull align 4 dereferenceable(4) %5)
  store ptr %call3, ptr %ThisCheckResult, align 8
  %6 = load ptr, ptr %ThisCheckResult, align 8
  %cmp4 = icmp eq ptr %6, null
  br i1 %cmp4, label %if.then5, label %if.end6

if.then5:                                         ; preds = %if.then2
  store i32 0, ptr %retval, align 4
  br label %return

if.end6:                                          ; preds = %if.then2
  %7 = load ptr, ptr %This, align 8
  %8 = load ptr, ptr %id.addr, align 8
  %9 = load ptr, ptr %ThisCheckResult, align 8
  %10 = load ptr, ptr %status.addr, align 8
  %call7 = call noundef i32 @_ZN12_GLOBAL__N_19checkImplEPKN6icu_759SpoofImplERKNS0_13UnicodeStringEPNS0_11CheckResultEP10UErrorCode(ptr noundef %7, ptr noundef nonnull align 8 dereferenceable(64) %8, ptr noundef %9, ptr noundef %10)
  store i32 %call7, ptr %retval, align 4
  br label %return

if.else:                                          ; preds = %if.end
  call void @_ZN6icu_7511CheckResultC1Ev(ptr noundef nonnull align 8 dereferenceable(220) %stackCheckResult)
  %11 = load ptr, ptr %This, align 8
  %12 = load ptr, ptr %id.addr, align 8
  %13 = load ptr, ptr %status.addr, align 8
  %call8 = invoke noundef i32 @_ZN12_GLOBAL__N_19checkImplEPKN6icu_759SpoofImplERKNS0_13UnicodeStringEPNS0_11CheckResultEP10UErrorCode(ptr noundef %11, ptr noundef nonnull align 8 dereferenceable(64) %12, ptr noundef %stackCheckResult, ptr noundef %13)
          to label %invoke.cont unwind label %lpad

invoke.cont:                                      ; preds = %if.else
  store i32 %call8, ptr %retval, align 4
  call void @_ZN6icu_7511CheckResultD1Ev(ptr noundef nonnull align 8 dereferenceable(220) %stackCheckResult) #6
  br label %return

lpad:                                             ; preds = %if.else
  %14 = landingpad { ptr, i32 }
          cleanup
  %15 = extractvalue { ptr, i32 } %14, 0
  store ptr %15, ptr %exn.slot, align 8
  %16 = extractvalue { ptr, i32 } %14, 1
  store i32 %16, ptr %ehselector.slot, align 4
  call void @_ZN6icu_7511CheckResultD1Ev(ptr noundef nonnull align 8 dereferenceable(220) %stackCheckResult) #6
  br label %eh.resume

return:                                           ; preds = %invoke.cont, %if.end6, %if.then5, %if.then
  %17 = load i32, ptr %retval, align 4
  ret i32 %17

eh.resume:                                        ; preds = %lpad
  %exn = load ptr, ptr %exn.slot, align 8
  %sel = load i32, ptr %ehselector.slot, align 4
  %lpad.val = insertvalue { ptr, i32 } poison, ptr %exn, 0
  %lpad.val9 = insertvalue { ptr, i32 } %lpad.val, i32 %sel, 1
  resume { ptr, i32 } %lpad.val9
}

; Function Attrs: mustprogress nounwind uwtable
define linkonce_odr void @_ZN6icu_7511StringPieceC2EPKci(ptr noundef nonnull align 8 dereferenceable(12) %this, ptr noundef %offset, i32 noundef %len) unnamed_addr #1 comdat align 2 {
entry:
  %this.addr = alloca ptr, align 8
  %offset.addr = alloca ptr, align 8
  %len.addr = alloca i32, align 4
  store ptr %this, ptr %this.addr, align 8
  store ptr %offset, ptr %offset.addr, align 8
  store i32 %len, ptr %len.addr, align 4
  %this1 = load ptr, ptr %this.addr, align 8
  %ptr_ = getelementptr inbounds %"class.icu_75::StringPiece", ptr %this1, i32 0, i32 0
  %0 = load ptr, ptr %offset.addr, align 8
  store ptr %0, ptr %ptr_, align 8
  %length_ = getelementptr inbounds %"class.icu_75::StringPiece", ptr %this1, i32 0, i32 1
  %1 = load i32, ptr %len.addr, align 4
  store i32 %1, ptr %length_, align 8
  ret void
}

; Function Attrs: mustprogress nounwind uwtable
define internal noundef signext i8 @_ZL9U_FAILURE10UErrorCode(i32 noundef %code) #1 {
entry:
  %code.addr = alloca i32, align 4
  store i32 %code, ptr %code.addr, align 4
  %0 = load i32, ptr %code.addr, align 4
  %cmp = icmp sgt i32 %0, 0
  %conv = zext i1 %cmp to i8
  ret i8 %conv
}

; Function Attrs: mustprogress uwtable
define i32 @uspoof_check2UTF8_75(ptr noundef %sc, ptr noundef %id, i32 noundef %length, ptr noundef %checkResult, ptr noundef %status) #0 personality ptr @__gxx_personality_v0 {
entry:
  %retval = alloca i32, align 4
  %sc.addr = alloca ptr, align 8
  %id.addr = alloca ptr, align 8
  %length.addr = alloca i32, align 4
  %checkResult.addr = alloca ptr, align 8
  %status.addr = alloca ptr, align 8
  %idStr = alloca %"class.icu_75::UnicodeString", align 8
  %agg.tmp = alloca %"class.icu_75::StringPiece", align 8
  %result = alloca i32, align 4
  %exn.slot = alloca ptr, align 8
  %ehselector.slot = alloca i32, align 4
  store ptr %sc, ptr %sc.addr, align 8
  store ptr %id, ptr %id.addr, align 8
  store i32 %length, ptr %length.addr, align 4
  store ptr %checkResult, ptr %checkResult.addr, align 8
  store ptr %status, ptr %status.addr, align 8
  %0 = load ptr, ptr %status.addr, align 8
  %1 = load i32, ptr %0, align 4
  %call = call noundef signext i8 @_ZL9U_FAILURE10UErrorCode(i32 noundef %1)
  %tobool = icmp ne i8 %call, 0
  br i1 %tobool, label %if.then, label %if.end

if.then:                                          ; preds = %entry
  store i32 0, ptr %retval, align 4
  br label %return

if.end:                                           ; preds = %entry
  %2 = load ptr, ptr %id.addr, align 8
  %3 = load i32, ptr %length.addr, align 4
  %cmp = icmp sge i32 %3, 0
  br i1 %cmp, label %cond.true, label %cond.false

cond.true:                                        ; preds = %if.end
  %4 = load i32, ptr %length.addr, align 4
  br label %cond.end

cond.false:                                       ; preds = %if.end
  %5 = load ptr, ptr %id.addr, align 8
  %call1 = call i64 @strlen(ptr noundef %5) #7
  %conv = trunc i64 %call1 to i32
  br label %cond.end

cond.end:                                         ; preds = %cond.false, %cond.true
  %cond = phi i32 [ %4, %cond.true ], [ %conv, %cond.false ]
  call void @_ZN6icu_7511StringPieceC2EPKci(ptr noundef nonnull align 8 dereferenceable(12) %agg.tmp, ptr noundef %2, i32 noundef %cond)
  %6 = getelementptr inbounds { ptr, i32 }, ptr %agg.tmp, i32 0, i32 0
  %7 = load ptr, ptr %6, align 8
  %8 = getelementptr inbounds { ptr, i32 }, ptr %agg.tmp, i32 0, i32 1
  %9 = load i32, ptr %8, align 8
  call void @_ZN6icu_7513UnicodeString8fromUTF8ENS_11StringPieceE(ptr sret(%"class.icu_75::UnicodeString") align 8 %idStr, ptr %7, i32 %9)
  %10 = load ptr, ptr %sc.addr, align 8
  %11 = load ptr, ptr %checkResult.addr, align 8
  %12 = load ptr, ptr %status.addr, align 8
  %call2 = invoke i32 @uspoof_check2UnicodeString_75(ptr noundef %10, ptr noundef nonnull align 8 dereferenceable(64) %idStr, ptr noundef %11, ptr noundef %12)
          to label %invoke.cont unwind label %lpad

invoke.cont:                                      ; preds = %cond.end
  store i32 %call2, ptr %result, align 4
  %13 = load i32, ptr %result, align 4
  store i32 %13, ptr %retval, align 4
  call void @_ZN6icu_7513UnicodeStringD1Ev(ptr noundef nonnull align 8 dereferenceable(64) %idStr) #6
  br label %return

lpad:                                             ; preds = %cond.end
  %14 = landingpad { ptr, i32 }
          cleanup
  %15 = extractvalue { ptr, i32 } %14, 0
  store ptr %15, ptr %exn.slot, align 8
  %16 = extractvalue { ptr, i32 } %14, 1
  store i32 %16, ptr %ehselector.slot, align 4
  call void @_ZN6icu_7513UnicodeStringD1Ev(ptr noundef nonnull align 8 dereferenceable(64) %idStr) #6
  br label %eh.resume

return:                                           ; preds = %invoke.cont, %if.then
  %17 = load i32, ptr %retval, align 4
  ret i32 %17

eh.resume:                                        ; preds = %lpad
  %exn = load ptr, ptr %exn.slot, align 8
  %sel = load i32, ptr %ehselector.slot, align 4
  %lpad.val = insertvalue { ptr, i32 } poison, ptr %exn, 0
  %lpad.val3 = insertvalue { ptr, i32 } %lpad.val, i32 %sel, 1
  resume { ptr, i32 } %lpad.val3
}

; Function Attrs: mustprogress uwtable
define i32 @uspoof_checkUTF8_75(ptr noundef %sc, ptr noundef %id, i32 noundef %length, ptr noundef %position, ptr noundef %status) #0 {
entry:
  %sc.addr = alloca ptr, align 8
  %id.addr = alloca ptr, align 8
  %length.addr = alloca i32, align 4
  %position.addr = alloca ptr, align 8
  %status.addr = alloca ptr, align 8
  store ptr %sc, ptr %sc.addr, align 8
  store ptr %id, ptr %id.addr, align 8
  store i32 %length, ptr %length.addr, align 4
  store ptr %position, ptr %position.addr, align 8
  store ptr %status, ptr %status.addr, align 8
  %0 = load ptr, ptr %position.addr, align 8
  %cmp = icmp ne ptr %0, null
  br i1 %cmp, label %if.then, label %if.end

if.then:                                          ; preds = %entry
  %1 = load ptr, ptr %position.addr, align 8
  store i32 0, ptr %1, align 4
  br label %if.end

if.end:                                           ; preds = %if.then, %entry
  %2 = load ptr, ptr %sc.addr, align 8
  %3 = load ptr, ptr %id.addr, align 8
  %4 = load i32, ptr %length.addr, align 4
  %5 = load ptr, ptr %status.addr, align 8
  %call = call i32 @uspoof_check2UTF8_75(ptr noundef %2, ptr noundef %3, i32 noundef %4, ptr noundef null, ptr noundef %5)
  ret i32 %call
}