; Function Attrs: mustprogress uwtable
define noundef i32 @uspoof_checkUTF8_75(ptr noundef %sc, ptr noundef %id, i32 noundef %length, ptr noundef writeonly %position, ptr noundef %status) local_unnamed_addr #0 personality ptr @__gxx_personality_v0 {
entry:
  %stackCheckResult.i = alloca %"class.icu_75::CheckResult", align 8
  %idStr.i = alloca %"class.icu_75::UnicodeString", align 8
  %cmp.not = icmp eq ptr %position, null
  br i1 %cmp.not, label %if.end, label %if.then

if.then:                                          ; preds = %entry
  store i32 0, ptr %position, align 4
  br label %if.end

if.end:                                           ; preds = %if.then, %entry
  call void @llvm.lifetime.start.p0(i64 64, ptr nonnull %idStr.i)
  %0 = load i32, ptr %status, align 4
  %cmp.i.i = icmp slt i32 %0, 1
  br i1 %cmp.i.i, label %if.end.i, label %uspoof_check2UTF8_75.exit

if.end.i:                                         ; preds = %if.end
  %cmp.i = icmp sgt i32 %length, -1
  br i1 %cmp.i, label %cond.end.i, label %cond.false.i

cond.false.i:                                     ; preds = %if.end.i
  %call1.i = tail call i64 @strlen(ptr noundef nonnull dereferenceable(1) %id) #7
  %conv.i = trunc i64 %call1.i to i32
  br label %cond.end.i

cond.end.i:                                       ; preds = %cond.false.i, %if.end.i
  %cond.i = phi i32 [ %conv.i, %cond.false.i ], [ %length, %if.end.i ]
  call void @_ZN6icu_7513UnicodeString8fromUTF8ENS_11StringPieceE(ptr nonnull sret(%"class.icu_75::UnicodeString") align 8 %idStr.i, ptr %id, i32 %cond.i)
  call void @llvm.lifetime.start.p0(i64 224, ptr nonnull %stackCheckResult.i)
  %call.i7 = invoke noundef ptr @_ZN6icu_759SpoofImpl12validateThisEPK13USpoofCheckerR10UErrorCode(ptr noundef %sc, ptr noundef nonnull align 4 dereferenceable(4) %status)
          to label %call.i.noexc unwind label %lpad.i

call.i.noexc:                                     ; preds = %cond.end.i
  %cmp.i2 = icmp eq ptr %call.i7, null
  br i1 %cmp.i2, label %invoke.cont.i, label %if.end.i3

if.end.i3:                                        ; preds = %call.i.noexc
  invoke void @_ZN6icu_7511CheckResultC1Ev(ptr noundef nonnull align 8 dereferenceable(220) %stackCheckResult.i)
          to label %.noexc unwind label %lpad.i

.noexc:                                           ; preds = %if.end.i3
  %call8.i = invoke fastcc noundef i32 @_ZN12_GLOBAL__N_19checkImplEPKN6icu_759SpoofImplERKNS0_13UnicodeStringEPNS0_11CheckResultEP10UErrorCode(ptr noundef nonnull %call.i7, ptr noundef nonnull align 8 dereferenceable(64) %idStr.i, ptr noundef nonnull %stackCheckResult.i, ptr noundef nonnull %status)
          to label %invoke.cont.i5 unwind label %lpad.i4

invoke.cont.i5:                                   ; preds = %.noexc
  call void @_ZN6icu_7511CheckResultD1Ev(ptr noundef nonnull align 8 dereferenceable(220) %stackCheckResult.i) #6
  br label %invoke.cont.i

lpad.i4:                                          ; preds = %.noexc
  %1 = landingpad { ptr, i32 }
          cleanup
  call void @_ZN6icu_7511CheckResultD1Ev(ptr noundef nonnull align 8 dereferenceable(220) %stackCheckResult.i) #6
  br label %lpad.i.body

invoke.cont.i:                                    ; preds = %invoke.cont.i5, %call.i.noexc
  %retval.0.i6 = phi i32 [ %call8.i, %invoke.cont.i5 ], [ 0, %call.i.noexc ]
  call void @llvm.lifetime.end.p0(i64 224, ptr nonnull %stackCheckResult.i)
  call void @_ZN6icu_7513UnicodeStringD1Ev(ptr noundef nonnull align 8 dereferenceable(64) %idStr.i) #6
  br label %uspoof_check2UTF8_75.exit

lpad.i:                                           ; preds = %if.end.i3, %cond.end.i
  %2 = landingpad { ptr, i32 }
          cleanup
  br label %lpad.i.body

lpad.i.body:                                      ; preds = %lpad.i4, %lpad.i
  %eh.lpad-body = phi { ptr, i32 } [ %2, %lpad.i ], [ %1, %lpad.i4 ]
  call void @_ZN6icu_7513UnicodeStringD1Ev(ptr noundef nonnull align 8 dereferenceable(64) %idStr.i) #6
  resume { ptr, i32 } %eh.lpad-body

uspoof_check2UTF8_75.exit:                        ; preds = %if.end, %invoke.cont.i
  %retval.0.i = phi i32 [ %retval.0.i6, %invoke.cont.i ], [ 0, %if.end ]
  call void @llvm.lifetime.end.p0(i64 64, ptr nonnull %idStr.i)
  ret i32 %retval.0.i
}